target datalayout = "e-m:e-p270:32:32-p271:32:32-p272:64:64-i64:64-i128:128-f80:128-n8:16:32:64-S128"
target triple = "x86_64-pc-linux-gnu"

%struct.AVChannelLayout = type { i32, i32, %union.anon, ptr }
%union.anon = type { i64 }
%struct.AVChannelCustom = type { i32, [16 x i8], ptr }

@.str.18 = private unnamed_addr constant [30 x i8] c"Assertion %s failed at %s:%d\0A\00", align 1
@.str.19 = private unnamed_addr constant [49 x i8] c"channel_layout->order == AV_CHANNEL_ORDER_CUSTOM\00", align 1
@.str.20 = private unnamed_addr constant [27 x i8] c"libavutil/channel_layout.c\00", align 1

; Function Attrs: alwaysinline nounwind willreturn memory(none) uwtable
define internal i32 @av_popcount_c(i32 noundef %0) #5 {
  %2 = alloca i32, align 4
  store i32 %0, ptr %2, align 4, !tbaa !9
  %3 = load i32, ptr %2, align 4, !tbaa !9
  %4 = lshr i32 %3, 1
  %5 = and i32 %4, 1431655765
  %6 = load i32, ptr %2, align 4, !tbaa !9
  %7 = sub i32 %6, %5
  store i32 %7, ptr %2, align 4, !tbaa !9
  %8 = load i32, ptr %2, align 4, !tbaa !9
  %9 = and i32 %8, 858993459
  %10 = load i32, ptr %2, align 4, !tbaa !9
  %11 = lshr i32 %10, 2
  %12 = and i32 %11, 858993459
  %13 = add i32 %9, %12
  store i32 %13, ptr %2, align 4, !tbaa !9
  %14 = load i32, ptr %2, align 4, !tbaa !9
  %15 = load i32, ptr %2, align 4, !tbaa !9
  %16 = lshr i32 %15, 4
  %17 = add i32 %14, %16
  %18 = and i32 %17, 252645135
  store i32 %18, ptr %2, align 4, !tbaa !9
  %19 = load i32, ptr %2, align 4, !tbaa !9
  %20 = lshr i32 %19, 8
  %21 = load i32, ptr %2, align 4, !tbaa !9
  %22 = add i32 %21, %20
  store i32 %22, ptr %2, align 4, !tbaa !9
  %23 = load i32, ptr %2, align 4, !tbaa !9
  %24 = load i32, ptr %2, align 4, !tbaa !9
  %25 = lshr i32 %24, 16
  %26 = add i32 %23, %25
  %27 = and i32 %26, 63
  ret i32 %27
}

; Function Attrs: alwaysinline nounwind willreturn memory(none) uwtable
define internal i32 @av_popcount64_c(i64 noundef %0) #5 {
  %2 = alloca i64, align 8
  store i64 %0, ptr %2, align 8, !tbaa !15
  %3 = load i64, ptr %2, align 8, !tbaa !15
  %4 = trunc i64 %3 to i32
  %5 = call i32 @av_popcount_c(i32 noundef %4) #13
  %6 = load i64, ptr %2, align 8, !tbaa !15
  %7 = lshr i64 %6, 32
  %8 = trunc i64 %7 to i32
  %9 = call i32 @av_popcount_c(i32 noundef %8) #13
  %10 = add nsw i32 %5, %9
  ret i32 %10
}

; Function Attrs: nounwind uwtable
define i32 @av_channel_layout_ambisonic_order(ptr noundef %0) #0 {
  %2 = alloca i32, align 4
  %3 = alloca ptr, align 8
  %4 = alloca i32, align 4
  %5 = alloca i32, align 4
  %6 = alloca i32, align 4
  %7 = alloca i32, align 4
  %8 = alloca ptr, align 8
  %9 = alloca i32, align 4
  store ptr %0, ptr %3, align 8, !tbaa !23
  call void @llvm.lifetime.start.p0(i64 4, ptr %4) #11
  call void @llvm.lifetime.start.p0(i64 4, ptr %5) #11
  call void @llvm.lifetime.start.p0(i64 4, ptr %6) #11
  %10 = load ptr, ptr %3, align 8, !tbaa !23
  %11 = getelementptr inbounds nuw %struct.AVChannelLayout, ptr %10, i32 0, i32 0
  %12 = load i32, ptr %11, align 8, !tbaa !30
  %13 = icmp ne i32 %12, 3
  br i1 %13, label %14, label %20

14:                                               ; preds = %1
  %15 = load ptr, ptr %3, align 8, !tbaa !23
  %16 = getelementptr inbounds nuw %struct.AVChannelLayout, ptr %15, i32 0, i32 0
  %17 = load i32, ptr %16, align 8, !tbaa !30
  %18 = icmp ne i32 %17, 2
  br i1 %18, label %19, label %20

19:                                               ; preds = %14
  store i32 -22, ptr %2, align 4
  store i32 1, ptr %7, align 4
  br label %161

20:                                               ; preds = %14, %1
  store i32 -1, ptr %5, align 4, !tbaa !9
  %21 = load ptr, ptr %3, align 8, !tbaa !23
  %22 = getelementptr inbounds nuw %struct.AVChannelLayout, ptr %21, i32 0, i32 0
  %23 = load i32, ptr %22, align 8, !tbaa !30
  %24 = icmp eq i32 %23, 3
  br i1 %24, label %25, label %35

25:                                               ; preds = %20
  %26 = load ptr, ptr %3, align 8, !tbaa !23
  %27 = getelementptr inbounds nuw %struct.AVChannelLayout, ptr %26, i32 0, i32 1
  %28 = load i32, ptr %27, align 4, !tbaa !32
  %29 = load ptr, ptr %3, align 8, !tbaa !23
  %30 = getelementptr inbounds nuw %struct.AVChannelLayout, ptr %29, i32 0, i32 2
  %31 = load i64, ptr %30, align 8, !tbaa !22
  %32 = call i32 @av_popcount64_c(i64 noundef %31) #13
  %33 = sub nsw i32 %28, %32
  %34 = sub nsw i32 %33, 1
  store i32 %34, ptr %5, align 4, !tbaa !9
  br label %140

35:                                               ; preds = %20
  call void @llvm.lifetime.start.p0(i64 8, ptr %8) #11
  %36 = load ptr, ptr %3, align 8, !tbaa !23
  %37 = getelementptr inbounds nuw %struct.AVChannelLayout, ptr %36, i32 0, i32 2
  %38 = load ptr, ptr %37, align 8, !tbaa !22
  store ptr %38, ptr %8, align 8, !tbaa !25
  br label %39

39:                                               ; preds = %35
  %40 = load ptr, ptr %3, align 8, !tbaa !23
  %41 = getelementptr inbounds nuw %struct.AVChannelLayout, ptr %40, i32 0, i32 0
  %42 = load i32, ptr %41, align 8, !tbaa !30
  %43 = icmp eq i32 %42, 2
  br i1 %43, label %45, label %44

44:                                               ; preds = %39
  call void (ptr, i32, ptr, ...) @av_log(ptr noundef null, i32 noundef 0, ptr noundef @.str.18, ptr noundef @.str.19, ptr noundef @.str.20, i32 noundef 498)
  call void @abort() #14
  unreachable

45:                                               ; preds = %39
  br label %46

46:                                               ; preds = %45
  br label %47

47:                                               ; preds = %46
  store i32 0, ptr %4, align 4, !tbaa !9
  br label %48

48:                                               ; preds = %133, %47
  %49 = load i32, ptr %4, align 4, !tbaa !9
  %50 = load ptr, ptr %3, align 8, !tbaa !23
  %51 = getelementptr inbounds nuw %struct.AVChannelLayout, ptr %50, i32 0, i32 1
  %52 = load i32, ptr %51, align 4, !tbaa !32
  %53 = icmp slt i32 %49, %52
  br i1 %53, label %54, label %136

54:                                               ; preds = %48
  call void @llvm.lifetime.start.p0(i64 4, ptr %9) #11
  %55 = load ptr, ptr %8, align 8, !tbaa !25
  %56 = load i32, ptr %4, align 4, !tbaa !9
  %57 = sext i32 %56 to i64
  %58 = getelementptr inbounds %struct.AVChannelCustom, ptr %55, i64 %57
  %59 = getelementptr inbounds nuw %struct.AVChannelCustom, ptr %58, i32 0, i32 0
  %60 = load i32, ptr %59, align 8, !tbaa !27
  %61 = icmp sge i32 %60, 1024
  br i1 %61, label %62, label %70

62:                                               ; preds = %54
  %63 = load ptr, ptr %8, align 8, !tbaa !25
  %64 = load i32, ptr %4, align 4, !tbaa !9
  %65 = sext i32 %64 to i64
  %66 = getelementptr inbounds %struct.AVChannelCustom, ptr %63, i64 %65
  %67 = getelementptr inbounds nuw %struct.AVChannelCustom, ptr %66, i32 0, i32 0
  %68 = load i32, ptr %67, align 8, !tbaa !27
  %69 = icmp sle i32 %68, 2047
  br label %70

70:                                               ; preds = %62, %54
  %71 = phi i1 [ false, %54 ], [ %69, %62 ]
  %72 = zext i1 %71 to i32
  store i32 %72, ptr %9, align 4, !tbaa !9
  %73 = load i32, ptr %4, align 4, !tbaa !9
  %74 = icmp sgt i32 %73, 0
  br i1 %74, label %75, label %97

75:                                               ; preds = %70
  %76 = load i32, ptr %9, align 4, !tbaa !9
  %77 = icmp ne i32 %76, 0
  br i1 %77, label %78, label %97

78:                                               ; preds = %75
  %79 = load ptr, ptr %8, align 8, !tbaa !25
  %80 = load i32, ptr %4, align 4, !tbaa !9
  %81 = sub nsw i32 %80, 1
  %82 = sext i32 %81 to i64
  %83 = getelementptr inbounds %struct.AVChannelCustom, ptr %79, i64 %82
  %84 = getelementptr inbounds nuw %struct.AVChannelCustom, ptr %83, i32 0, i32 0
  %85 = load i32, ptr %84, align 8, !tbaa !27
  %86 = icmp sge i32 %85, 1024
  br i1 %86, label %87, label %96

87:                                               ; preds = %78
  %88 = load ptr, ptr %8, align 8, !tbaa !25
  %89 = load i32, ptr %4, align 4, !tbaa !9
  %90 = sub nsw i32 %89, 1
  %91 = sext i32 %90 to i64
  %92 = getelementptr inbounds %struct.AVChannelCustom, ptr %88, i64 %91
  %93 = getelementptr inbounds nuw %struct.AVChannelCustom, ptr %92, i32 0, i32 0
  %94 = load i32, ptr %93, align 8, !tbaa !27
  %95 = icmp sle i32 %94, 2047
  br i1 %95, label %97, label %96

96:                                               ; preds = %87, %78
  store i32 -22, ptr %2, align 4
  store i32 1, ptr %7, align 4
  br label %130

97:                                               ; preds = %87, %75, %70
  %98 = load i32, ptr %9, align 4, !tbaa !9
  %99 = icmp ne i32 %98, 0
  br i1 %99, label %100, label %111

100:                                              ; preds = %97
  %101 = load ptr, ptr %8, align 8, !tbaa !25
  %102 = load i32, ptr %4, align 4, !tbaa !9
  %103 = sext i32 %102 to i64
  %104 = getelementptr inbounds %struct.AVChannelCustom, ptr %101, i64 %103
  %105 = getelementptr inbounds nuw %struct.AVChannelCustom, ptr %104, i32 0, i32 0
  %106 = load i32, ptr %105, align 8, !tbaa !27
  %107 = sub nsw i32 %106, 1024
  %108 = load i32, ptr %4, align 4, !tbaa !9
  %109 = icmp ne i32 %107, %108
  br i1 %109, label %110, label %111

110:                                              ; preds = %100
  store i32 -22, ptr %2, align 4
  store i32 1, ptr %7, align 4
  br label %130

111:                                              ; preds = %100, %97
  %112 = load ptr, ptr %8, align 8, !tbaa !25
  %113 = load i32, ptr %4, align 4, !tbaa !9
  %114 = sext i32 %113 to i64
  %115 = getelementptr inbounds %struct.AVChannelCustom, ptr %112, i64 %114
  %116 = getelementptr inbounds nuw %struct.AVChannelCustom, ptr %115, i32 0, i32 0
  %117 = load i32, ptr %116, align 8, !tbaa !27
  %118 = icmp sge i32 %117, 1024
  br i1 %118, label %119, label %129

119:                                              ; preds = %111
  %120 = load ptr, ptr %8, align 8, !tbaa !25
  %121 = load i32, ptr %4, align 4, !tbaa !9
  %122 = sext i32 %121 to i64
  %123 = getelementptr inbounds %struct.AVChannelCustom, ptr %120, i64 %122
  %124 = getelementptr inbounds nuw %struct.AVChannelCustom, ptr %123, i32 0, i32 0
  %125 = load i32, ptr %124, align 8, !tbaa !27
  %126 = icmp sle i32 %125, 2047
  br i1 %126, label %127, label %129

127:                                              ; preds = %119
  %128 = load i32, ptr %4, align 4, !tbaa !9
  store i32 %128, ptr %5, align 4, !tbaa !9
  br label %129

129:                                              ; preds = %127, %119, %111
  store i32 0, ptr %7, align 4
  br label %130

130:                                              ; preds = %129, %110, %96
  call void @llvm.lifetime.end.p0(i64 4, ptr %9) #11
  %131 = load i32, ptr %7, align 4
  switch i32 %131, label %137 [
    i32 0, label %132
  ]

132:                                              ; preds = %130
  br label %133

133:                                              ; preds = %132
  %134 = load i32, ptr %4, align 4, !tbaa !9
  %135 = add nsw i32 %134, 1
  store i32 %135, ptr %4, align 4, !tbaa !9
  br label %48, !llvm.loop !44

136:                                              ; preds = %48
  store i32 0, ptr %7, align 4
  br label %137

137:                                              ; preds = %136, %130
  call void @llvm.lifetime.end.p0(i64 8, ptr %8) #11
  %138 = load i32, ptr %7, align 4
  switch i32 %138, label %161 [
    i32 0, label %139
  ]

139:                                              ; preds = %137
  br label %140

140:                                              ; preds = %139, %25
  %141 = load i32, ptr %5, align 4, !tbaa !9
  %142 = icmp slt i32 %141, 0
  br i1 %142, label %143, label %144

143:                                              ; preds = %140
  store i32 -22, ptr %2, align 4
  store i32 1, ptr %7, align 4
  br label %161

144:                                              ; preds = %140
  %145 = load i32, ptr %5, align 4, !tbaa !9
  %146 = sitofp i32 %145 to double
  %147 = call nsz double @llvm.sqrt.f64(double %146)
  %148 = call nsz double @llvm.floor.f64(double %147)
  %149 = fptosi double %148 to i32
  store i32 %149, ptr %6, align 4, !tbaa !9
  %150 = load i32, ptr %6, align 4, !tbaa !9
  %151 = add nsw i32 %150, 1
  %152 = load i32, ptr %6, align 4, !tbaa !9
  %153 = add nsw i32 %152, 1
  %154 = mul nsw i32 %151, %153
  %155 = load i32, ptr %5, align 4, !tbaa !9
  %156 = add nsw i32 %155, 1
  %157 = icmp ne i32 %154, %156
  br i1 %157, label %158, label %159

158:                                              ; preds = %144
  store i32 -22, ptr %2, align 4
  store i32 1, ptr %7, align 4
  br label %161

159:                                              ; preds = %144
  %160 = load i32, ptr %6, align 4, !tbaa !9
  store i32 %160, ptr %2, align 4
  store i32 1, ptr %7, align 4
  br label %161

161:                                              ; preds = %159, %158, %143, %137, %19
  call void @llvm.lifetime.end.p0(i64 4, ptr %6) #11
  call void @llvm.lifetime.end.p0(i64 4, ptr %5) #11
  call void @llvm.lifetime.end.p0(i64 4, ptr %4) #11
  %162 = load i32, ptr %2, align 4
  ret i32 %162
}