; Function Attrs: nofree norecurse nosync nounwind memory(read, inaccessiblemem: none) uwtable
define i32 @av_channel_layout_ambisonic_order(ptr noundef readonly captures(none) %0) local_unnamed_addr #9 {
  %2 = load i32, ptr %0, align 8, !tbaa !18
  %3 = and i32 %2, -2
  %switch = icmp eq i32 %3, 2
  br i1 %switch, label %4, label %.thread59

4:                                                ; preds = %1
  %5 = icmp eq i32 %2, 3
  br i1 %5, label %6, label %47

6:                                                ; preds = %4
  %7 = getelementptr inbounds nuw i8, ptr %0, i64 4
  %8 = load i32, ptr %7, align 4, !tbaa !20
  %9 = getelementptr inbounds nuw i8, ptr %0, i64 8
  %10 = load i64, ptr %9, align 8, !tbaa !17
  %11 = trunc i64 %10 to i32
  %12 = lshr i32 %11, 1
  %13 = and i32 %12, 1431655765
  %14 = sub i32 %11, %13
  %15 = and i32 %14, 858993459
  %16 = lshr i32 %14, 2
  %17 = and i32 %16, 858993459
  %18 = add nuw nsw i32 %17, %15
  %19 = lshr i32 %18, 4
  %20 = add nuw nsw i32 %19, %18
  %21 = and i32 %20, 252645135
  %22 = lshr i32 %21, 8
  %23 = add nuw nsw i32 %22, %21
  %24 = lshr i32 %23, 16
  %25 = add nuw nsw i32 %24, %23
  %26 = and i32 %25, 63
  %27 = lshr i64 %10, 32
  %28 = trunc nuw i64 %27 to i32
  %29 = lshr i32 %28, 1
  %30 = and i32 %29, 1431655765
  %31 = sub i32 %28, %30
  %32 = and i32 %31, 858993459
  %33 = lshr i32 %31, 2
  %34 = and i32 %33, 858993459
  %35 = add nuw nsw i32 %34, %32
  %36 = lshr i32 %35, 4
  %37 = add nuw nsw i32 %36, %35
  %38 = and i32 %37, 252645135
  %39 = lshr i32 %38, 8
  %40 = add nuw nsw i32 %39, %38
  %41 = lshr i32 %40, 16
  %42 = add nuw nsw i32 %41, %40
  %43 = and i32 %42, 63
  %44 = add nuw nsw i32 %43, %26
  %45 = xor i32 %44, -1
  %46 = add i32 %8, %45
  br label %.loopexit

47:                                               ; preds = %4
  %48 = getelementptr inbounds nuw i8, ptr %0, i64 8
  %49 = load ptr, ptr %48, align 8, !tbaa !17
  %50 = getelementptr inbounds nuw i8, ptr %0, i64 4
  %51 = load i32, ptr %50, align 4, !tbaa !20
  %.not5362 = icmp sgt i32 %51, 0
  br i1 %.not5362, label %.lr.ph.preheader, label %.thread59

.lr.ph.preheader:                                 ; preds = %47
  %wide.trip.count = zext nneg i32 %51 to i64
  br label %.lr.ph

.lr.ph:                                           ; preds = %.lr.ph.preheader, %63
  %indvars.iv = phi i64 [ 0, %.lr.ph.preheader ], [ %indvars.iv.next, %63 ]
  %.14363 = phi i32 [ -1, %.lr.ph.preheader ], [ %.345, %63 ]
  %52 = getelementptr inbounds nuw %struct.AVChannelCustom, ptr %49, i64 %indvars.iv
  %53 = load i32, ptr %52, align 8, !tbaa !21
  %54 = and i32 %53, -1024
  %spec.select = icmp eq i32 %54, 1024
  %55 = icmp ne i64 %indvars.iv, 0
  %or.cond = and i1 %55, %spec.select
  br i1 %or.cond, label %56, label %60

56:                                               ; preds = %.lr.ph
  %57 = getelementptr i8, ptr %52, i64 -32
  %58 = load i32, ptr %57, align 8, !tbaa !21
  %59 = and i32 %58, -1024
  %or.cond55 = icmp eq i32 %59, 1024
  br i1 %or.cond55, label %60, label %.thread59

60:                                               ; preds = %56, %.lr.ph
  %61 = add nsw i32 %53, -1024
  %62 = zext i32 %61 to i64
  %.not52 = icmp ne i64 %indvars.iv, %62
  %or.cond60.not = select i1 %spec.select, i1 %.not52, i1 false
  br i1 %or.cond60.not, label %.thread59, label %63

63:                                               ; preds = %60
  %64 = trunc nuw nsw i64 %indvars.iv to i32
  %.345 = select i1 %spec.select, i32 %64, i32 %.14363
  %indvars.iv.next = add nuw nsw i64 %indvars.iv, 1
  %exitcond.not = icmp eq i64 %indvars.iv.next, %wide.trip.count
  br i1 %exitcond.not, label %.loopexit, label %.lr.ph, !llvm.loop !38

.loopexit:                                        ; preds = %63, %6
  %.042 = phi i32 [ %46, %6 ], [ %.345, %63 ]
  %65 = icmp slt i32 %.042, 0
  br i1 %65, label %.thread59, label %66

66:                                               ; preds = %.loopexit
  %67 = uitofp nneg i32 %.042 to double
  %68 = tail call nsz double @llvm.sqrt.f64(double %67)
  %69 = tail call nsz double @llvm.floor.f64(double %68)
  %70 = fptosi double %69 to i32
  %71 = add nsw i32 %70, 1
  %72 = mul nsw i32 %71, %71
  %73 = add nuw nsw i32 %.042, 1
  %.not54 = icmp eq i32 %72, %73
  %. = select i1 %.not54, i32 %70, i32 -22
  br label %.thread59

.thread59:                                        ; preds = %60, %56, %47, %1, %66, %.loopexit
  %.0 = phi i32 [ -22, %1 ], [ -22, %.loopexit ], [ %., %66 ], [ -22, %47 ], [ -22, %56 ], [ -22, %60 ]
  ret i32 %.0
}